target datalayout = "e-m:e-p270:32:32-p271:32:32-p272:64:64-i64:64-i128:128-f80:128-n8:16:32:64-S128"
target triple = "x86_64-pc-linux-gnu"

%struct.Abc_Ntk_t_ = type { i32, i32, ptr, ptr, ptr, ptr, ptr, ptr, ptr, ptr, ptr, ptr, ptr, [11 x i32], i32, i32, i32, i32, ptr, i32, ptr, ptr, i32, i32, i32, double, i32, %struct.Vec_Int_t_, ptr, ptr, ptr, ptr, ptr, float, i32, ptr, ptr, ptr, ptr, ptr, ptr, ptr, ptr, ptr, ptr, ptr, ptr, ptr, ptr, ptr, ptr, ptr, ptr, ptr, ptr, ptr, ptr }
%struct.Vec_Int_t_ = type { i32, i32, ptr }
%struct.Abc_Obj_t_ = type { ptr, ptr, i32, i32, %struct.Vec_Int_t_, %struct.Vec_Int_t_, %union.anon, %union.anon.0 }
%union.anon = type { ptr }
%union.anon.0 = type { ptr }
%struct.Vec_Ptr_t_ = type { i32, i32, ptr }

; Function Attrs: inlinehint nounwind uwtable
define internal i32 @Abc_NtkHasAig(ptr noundef %0) #6 {
  %2 = alloca ptr, align 8
  store ptr %0, ptr %2, align 8, !tbaa !3
  %3 = load ptr, ptr %2, align 8, !tbaa !3
  %4 = getelementptr inbounds nuw %struct.Abc_Ntk_t_, ptr %3, i32 0, i32 1
  %5 = load i32, ptr %4, align 4, !tbaa !55
  %6 = icmp eq i32 %5, 3
  %7 = zext i1 %6 to i32
  ret i32 %7
}

; Function Attrs: inlinehint nounwind uwtable
define internal i32 @Abc_NtkHasBdd(ptr noundef %0) #6 {
  %2 = alloca ptr, align 8
  store ptr %0, ptr %2, align 8, !tbaa !3
  %3 = load ptr, ptr %2, align 8, !tbaa !3
  %4 = getelementptr inbounds nuw %struct.Abc_Ntk_t_, ptr %3, i32 0, i32 1
  %5 = load i32, ptr %4, align 4, !tbaa !55
  %6 = icmp eq i32 %5, 2
  %7 = zext i1 %6 to i32
  ret i32 %7
}

; Function Attrs: inlinehint nounwind uwtable
define internal i32 @Vec_PtrSize(ptr noundef %0) #6 {
  %2 = alloca ptr, align 8
  store ptr %0, ptr %2, align 8, !tbaa !44
  %3 = load ptr, ptr %2, align 8, !tbaa !44
  %4 = getelementptr inbounds nuw %struct.Vec_Ptr_t_, ptr %3, i32 0, i32 1
  %5 = load i32, ptr %4, align 4, !tbaa !35
  ret i32 %5
}

; Function Attrs: inlinehint nounwind uwtable
define internal i32 @Abc_NtkHasSop(ptr noundef %0) #6 {
  %2 = alloca ptr, align 8
  store ptr %0, ptr %2, align 8, !tbaa !3
  %3 = load ptr, ptr %2, align 8, !tbaa !3
  %4 = getelementptr inbounds nuw %struct.Abc_Ntk_t_, ptr %3, i32 0, i32 1
  %5 = load i32, ptr %4, align 4, !tbaa !55
  %6 = icmp eq i32 %5, 1
  %7 = zext i1 %6 to i32
  ret i32 %7
}

; Function Attrs: inlinehint nounwind uwtable
define internal ptr @Abc_NtkCreateNode(ptr noundef %0) #6 {
  %2 = alloca ptr, align 8
  store ptr %0, ptr %2, align 8, !tbaa !3
  %3 = load ptr, ptr %2, align 8, !tbaa !3
  %4 = call ptr @Abc_NtkCreateObj(ptr noundef %3, i32 noundef 7)
  ret ptr %4
}

; Function Attrs: nounwind uwtable
define ptr @Abc_NtkCreateNodeOr(ptr noundef %0, ptr noundef %1) #0 {
  %3 = alloca ptr, align 8
  %4 = alloca ptr, align 8
  %5 = alloca ptr, align 8
  %6 = alloca i32, align 4
  store ptr %0, ptr %3, align 8, !tbaa !3
  store ptr %1, ptr %4, align 8, !tbaa !44
  call void @llvm.lifetime.start.p0(i64 8, ptr %5) #9
  call void @llvm.lifetime.start.p0(i64 4, ptr %6) #9
  %7 = load ptr, ptr %3, align 8, !tbaa !3
  %8 = call ptr @Abc_NtkCreateNode(ptr noundef %7)
  store ptr %8, ptr %5, align 8, !tbaa !26
  store i32 0, ptr %6, align 4, !tbaa !8
  br label %9

9:                                                ; preds = %24, %2
  %10 = load i32, ptr %6, align 4, !tbaa !8
  %11 = load ptr, ptr %4, align 8, !tbaa !44
  %12 = getelementptr inbounds nuw %struct.Vec_Ptr_t_, ptr %11, i32 0, i32 1
  %13 = load i32, ptr %12, align 4, !tbaa !35
  %14 = icmp slt i32 %10, %13
  br i1 %14, label %15, label %27

15:                                               ; preds = %9
  %16 = load ptr, ptr %5, align 8, !tbaa !26
  %17 = load ptr, ptr %4, align 8, !tbaa !44
  %18 = getelementptr inbounds nuw %struct.Vec_Ptr_t_, ptr %17, i32 0, i32 2
  %19 = load ptr, ptr %18, align 8, !tbaa !47
  %20 = load i32, ptr %6, align 4, !tbaa !8
  %21 = sext i32 %20 to i64
  %22 = getelementptr inbounds ptr, ptr %19, i64 %21
  %23 = load ptr, ptr %22, align 8, !tbaa !45
  call void @Abc_ObjAddFanin(ptr noundef %16, ptr noundef %23)
  br label %24

24:                                               ; preds = %15
  %25 = load i32, ptr %6, align 4, !tbaa !8
  %26 = add nsw i32 %25, 1
  store i32 %26, ptr %6, align 4, !tbaa !8
  br label %9, !llvm.loop !77

27:                                               ; preds = %9
  %28 = load ptr, ptr %3, align 8, !tbaa !3
  %29 = call i32 @Abc_NtkHasSop(ptr noundef %28)
  %30 = icmp ne i32 %29, 0
  br i1 %30, label %31, label %40

31:                                               ; preds = %27
  %32 = load ptr, ptr %3, align 8, !tbaa !3
  %33 = getelementptr inbounds nuw %struct.Abc_Ntk_t_, ptr %32, i32 0, i32 30
  %34 = load ptr, ptr %33, align 8, !tbaa !52
  %35 = load ptr, ptr %4, align 8, !tbaa !44
  %36 = call i32 @Vec_PtrSize(ptr noundef %35)
  %37 = call ptr @Abc_SopCreateOr(ptr noundef %34, i32 noundef %36, ptr noundef null)
  %38 = load ptr, ptr %5, align 8, !tbaa !26
  %39 = getelementptr inbounds nuw %struct.Abc_Obj_t_, ptr %38, i32 0, i32 6
  store ptr %37, ptr %39, align 8, !tbaa !42
  br label %72

40:                                               ; preds = %27
  %41 = load ptr, ptr %3, align 8, !tbaa !3
  %42 = call i32 @Abc_NtkHasBdd(ptr noundef %41)
  %43 = icmp ne i32 %42, 0
  br i1 %43, label %44, label %56

44:                                               ; preds = %40
  %45 = load ptr, ptr %3, align 8, !tbaa !3
  %46 = getelementptr inbounds nuw %struct.Abc_Ntk_t_, ptr %45, i32 0, i32 30
  %47 = load ptr, ptr %46, align 8, !tbaa !52
  %48 = load ptr, ptr %4, align 8, !tbaa !44
  %49 = call i32 @Vec_PtrSize(ptr noundef %48)
  %50 = call ptr @Extra_bddCreateOr(ptr noundef %47, i32 noundef %49)
  %51 = load ptr, ptr %5, align 8, !tbaa !26
  %52 = getelementptr inbounds nuw %struct.Abc_Obj_t_, ptr %51, i32 0, i32 6
  store ptr %50, ptr %52, align 8, !tbaa !42
  %53 = load ptr, ptr %5, align 8, !tbaa !26
  %54 = getelementptr inbounds nuw %struct.Abc_Obj_t_, ptr %53, i32 0, i32 6
  %55 = load ptr, ptr %54, align 8, !tbaa !42
  call void @Cudd_Ref(ptr noundef %55)
  br label %71

56:                                               ; preds = %40
  %57 = load ptr, ptr %3, align 8, !tbaa !3
  %58 = call i32 @Abc_NtkHasAig(ptr noundef %57)
  %59 = icmp ne i32 %58, 0
  br i1 %59, label %60, label %69

60:                                               ; preds = %56
  %61 = load ptr, ptr %3, align 8, !tbaa !3
  %62 = getelementptr inbounds nuw %struct.Abc_Ntk_t_, ptr %61, i32 0, i32 30
  %63 = load ptr, ptr %62, align 8, !tbaa !52
  %64 = load ptr, ptr %4, align 8, !tbaa !44
  %65 = call i32 @Vec_PtrSize(ptr noundef %64)
  %66 = call ptr @Hop_CreateOr(ptr noundef %63, i32 noundef %65)
  %67 = load ptr, ptr %5, align 8, !tbaa !26
  %68 = getelementptr inbounds nuw %struct.Abc_Obj_t_, ptr %67, i32 0, i32 6
  store ptr %66, ptr %68, align 8, !tbaa !42
  br label %70

69:                                               ; preds = %56
  br label %70

70:                                               ; preds = %69, %60
  br label %71

71:                                               ; preds = %70, %44
  br label %72

72:                                               ; preds = %71, %31
  %73 = load ptr, ptr %5, align 8, !tbaa !26
  call void @llvm.lifetime.end.p0(i64 4, ptr %6) #9
  call void @llvm.lifetime.end.p0(i64 8, ptr %5) #9
  ret ptr %73
}